target datalayout = "e-m:e-p270:32:32-p271:32:32-p272:64:64-i64:64-i128:128-f80:128-n8:16:32:64-S128"
target triple = "x86_64-pc-linux-gnu"

%"struct.std::_Vector_base" = type { %"struct.std::_Vector_base<llvm::ProfileSummaryEntry, std::allocator<llvm::ProfileSummaryEntry>>::_Vector_impl" }
%"struct.std::_Vector_base<llvm::ProfileSummaryEntry, std::allocator<llvm::ProfileSummaryEntry>>::_Vector_impl" = type { %"struct.std::_Vector_base<llvm::ProfileSummaryEntry, std::allocator<llvm::ProfileSummaryEntry>>::_Vector_impl_data" }
%"struct.std::_Vector_base<llvm::ProfileSummaryEntry, std::allocator<llvm::ProfileSummaryEntry>>::_Vector_impl_data" = type { ptr, ptr, ptr }
%"struct.llvm::InstrProfRecord" = type { %"class.std::vector.39", %"class.std::vector.44", %"class.std::unique_ptr" }
%"class.std::vector.39" = type { %"struct.std::_Vector_base.40" }
%"struct.std::_Vector_base.40" = type { %"struct.std::_Vector_base<unsigned long, std::allocator<unsigned long>>::_Vector_impl" }
%"struct.std::_Vector_base<unsigned long, std::allocator<unsigned long>>::_Vector_impl" = type { %"struct.std::_Vector_base<unsigned long, std::allocator<unsigned long>>::_Vector_impl_data" }
%"struct.std::_Vector_base<unsigned long, std::allocator<unsigned long>>::_Vector_impl_data" = type { ptr, ptr, ptr }
%"class.std::vector.44" = type { %"struct.std::_Vector_base.45" }
%"struct.std::_Vector_base.45" = type { %"struct.std::_Vector_base<unsigned char, std::allocator<unsigned char>>::_Vector_impl" }
%"struct.std::_Vector_base<unsigned char, std::allocator<unsigned char>>::_Vector_impl" = type { %"struct.std::_Vector_base<unsigned char, std::allocator<unsigned char>>::_Vector_impl_data" }
%"struct.std::_Vector_base<unsigned char, std::allocator<unsigned char>>::_Vector_impl_data" = type { ptr, ptr, ptr }
%"class.std::unique_ptr" = type { %"struct.std::__uniq_ptr_data" }
%"struct.std::__uniq_ptr_data" = type { %"class.std::__uniq_ptr_impl" }
%"class.std::__uniq_ptr_impl" = type { %"class.std::tuple" }
%"class.std::tuple" = type { %"struct.std::_Tuple_impl" }
%"struct.std::_Tuple_impl" = type { %"struct.std::_Head_base.50" }
%"struct.std::_Head_base.50" = type { ptr }
%"class.llvm::ProfileSummaryBuilder" = type { %"class.std::map", %"class.std::vector.54", %"class.std::vector", i64, i64, i64, i32, i32 }
%"class.std::map" = type { %"class.std::_Rb_tree" }
%"class.std::_Rb_tree" = type { %"struct.std::_Rb_tree<unsigned long, std::pair<const unsigned long, unsigned int>, std::_Select1st<std::pair<const unsigned long, unsigned int>>, std::greater<unsigned long>>::_Rb_tree_impl" }
%"struct.std::_Rb_tree<unsigned long, std::pair<const unsigned long, unsigned int>, std::_Select1st<std::pair<const unsigned long, unsigned int>>, std::greater<unsigned long>>::_Rb_tree_impl" = type { [8 x i8], %"struct.std::_Rb_tree_header" }
%"struct.std::_Rb_tree_header" = type { %"struct.std::_Rb_tree_node_base", i64 }
%"struct.std::_Rb_tree_node_base" = type { i32, ptr, ptr, ptr }
%"class.std::vector.54" = type { %"struct.std::_Vector_base.55" }
%"struct.std::_Vector_base.55" = type { %"struct.std::_Vector_base<unsigned int, std::allocator<unsigned int>>::_Vector_impl" }
%"struct.std::_Vector_base<unsigned int, std::allocator<unsigned int>>::_Vector_impl" = type { %"struct.std::_Vector_base<unsigned int, std::allocator<unsigned int>>::_Vector_impl_data" }
%"struct.std::_Vector_base<unsigned int, std::allocator<unsigned int>>::_Vector_impl_data" = type { ptr, ptr, ptr }
%"class.std::vector" = type { %"struct.std::_Vector_base" }
%"class.llvm::InstrProfSummaryBuilder" = type { %"class.llvm::ProfileSummaryBuilder", i64 }

; Function Attrs: mustprogress nounwind uwtable
define linkonce_odr hidden void @_ZN4llvm21ProfileSummaryBuilder8addCountEm(ptr noundef nonnull align 8 dereferenceable(128) %0, i64 noundef %1) #1 comdat align 2 {
  %3 = alloca ptr, align 8
  %4 = alloca i64, align 8
  store ptr %0, ptr %3, align 8
  store i64 %1, ptr %4, align 8
  %5 = load ptr, ptr %3, align 8
  %6 = load i64, ptr %4, align 8
  %7 = getelementptr inbounds nuw %"class.llvm::ProfileSummaryBuilder", ptr %5, i32 0, i32 3
  %8 = load i64, ptr %7, align 8
  %9 = add i64 %8, %6
  store i64 %9, ptr %7, align 8
  %10 = load i64, ptr %4, align 8
  %11 = getelementptr inbounds nuw %"class.llvm::ProfileSummaryBuilder", ptr %5, i32 0, i32 4
  %12 = load i64, ptr %11, align 8
  %13 = icmp ugt i64 %10, %12
  br i1 %13, label %14, label %17

14:                                               ; preds = %2
  %15 = load i64, ptr %4, align 8
  %16 = getelementptr inbounds nuw %"class.llvm::ProfileSummaryBuilder", ptr %5, i32 0, i32 4
  store i64 %15, ptr %16, align 8
  br label %17

17:                                               ; preds = %14, %2
  %18 = getelementptr inbounds nuw %"class.llvm::ProfileSummaryBuilder", ptr %5, i32 0, i32 6
  %19 = load i32, ptr %18, align 8
  %20 = add i32 %19, 1
  store i32 %20, ptr %18, align 8
  %21 = getelementptr inbounds nuw %"class.llvm::ProfileSummaryBuilder", ptr %5, i32 0, i32 0
  %22 = call noundef nonnull align 4 dereferenceable(4) ptr @_ZNSt3mapImjSt7greaterImESaISt4pairIKmjEEEixERS3_(ptr noundef nonnull align 8 dereferenceable(48) %21, ptr noundef nonnull align 8 dereferenceable(8) %4)
  %23 = load i32, ptr %22, align 4
  %24 = add i32 %23, 1
  store i32 %24, ptr %22, align 4
  ret void
}

; Function Attrs: mustprogress nounwind uwtable
define linkonce_odr hidden void @_ZN4llvm23InstrProfSummaryBuilder16addInternalCountEm(ptr noundef nonnull align 8 dereferenceable(136) %0, i64 noundef %1) #1 comdat align 2 {
  %3 = alloca ptr, align 8
  %4 = alloca i64, align 8
  store ptr %0, ptr %3, align 8
  store i64 %1, ptr %4, align 8
  %5 = load ptr, ptr %3, align 8
  %6 = load i64, ptr %4, align 8
  call void @_ZN4llvm21ProfileSummaryBuilder8addCountEm(ptr noundef nonnull align 8 dereferenceable(128) %5, i64 noundef %6)
  %7 = load i64, ptr %4, align 8
  %8 = getelementptr inbounds nuw %"class.llvm::InstrProfSummaryBuilder", ptr %5, i32 0, i32 1
  %9 = load i64, ptr %8, align 8
  %10 = icmp ugt i64 %7, %9
  br i1 %10, label %11, label %14

11:                                               ; preds = %2
  %12 = load i64, ptr %4, align 8
  %13 = getelementptr inbounds nuw %"class.llvm::InstrProfSummaryBuilder", ptr %5, i32 0, i32 1
  store i64 %12, ptr %13, align 8
  br label %14

14:                                               ; preds = %11, %2
  ret void
}

; Function Attrs: mustprogress nounwind uwtable
define linkonce_odr hidden noundef i64 @_ZNKSt6vectorImSaImEE4sizeEv(ptr noundef nonnull align 8 dereferenceable(24) %0) #1 comdat align 2 {
  %2 = alloca ptr, align 8
  store ptr %0, ptr %2, align 8
  %3 = load ptr, ptr %2, align 8
  %4 = getelementptr inbounds nuw %"struct.std::_Vector_base.40", ptr %3, i32 0, i32 0
  %5 = getelementptr inbounds nuw %"struct.std::_Vector_base<unsigned long, std::allocator<unsigned long>>::_Vector_impl_data", ptr %4, i32 0, i32 1
  %6 = load ptr, ptr %5, align 8
  %7 = getelementptr inbounds nuw %"struct.std::_Vector_base.40", ptr %3, i32 0, i32 0
  %8 = getelementptr inbounds nuw %"struct.std::_Vector_base<unsigned long, std::allocator<unsigned long>>::_Vector_impl_data", ptr %7, i32 0, i32 0
  %9 = load ptr, ptr %8, align 8
  %10 = ptrtoint ptr %6 to i64
  %11 = ptrtoint ptr %9 to i64
  %12 = sub i64 %10, %11
  %13 = sdiv exact i64 %12, 8
  ret i64 %13
}

; Function Attrs: mustprogress nounwind uwtable
define linkonce_odr hidden void @_ZN4llvm23InstrProfSummaryBuilder13addEntryCountEm(ptr noundef nonnull align 8 dereferenceable(136) %0, i64 noundef %1) #1 comdat align 2 {
  %3 = alloca ptr, align 8
  %4 = alloca i64, align 8
  store ptr %0, ptr %3, align 8
  store i64 %1, ptr %4, align 8
  %5 = load ptr, ptr %3, align 8
  %6 = getelementptr inbounds nuw %"class.llvm::ProfileSummaryBuilder", ptr %5, i32 0, i32 7
  %7 = load i32, ptr %6, align 4
  %8 = add i32 %7, 1
  store i32 %8, ptr %6, align 4
  %9 = load i64, ptr %4, align 8
  call void @_ZN4llvm21ProfileSummaryBuilder8addCountEm(ptr noundef nonnull align 8 dereferenceable(128) %5, i64 noundef %9)
  %10 = load i64, ptr %4, align 8
  %11 = getelementptr inbounds nuw %"class.llvm::ProfileSummaryBuilder", ptr %5, i32 0, i32 5
  %12 = load i64, ptr %11, align 8
  %13 = icmp ugt i64 %10, %12
  br i1 %13, label %14, label %17

14:                                               ; preds = %2
  %15 = load i64, ptr %4, align 8
  %16 = getelementptr inbounds nuw %"class.llvm::ProfileSummaryBuilder", ptr %5, i32 0, i32 5
  store i64 %15, ptr %16, align 8
  br label %17

17:                                               ; preds = %14, %2
  ret void
}

; Function Attrs: mustprogress nounwind uwtable
define linkonce_odr hidden noundef nonnull align 8 dereferenceable(8) ptr @_ZNKSt6vectorImSaImEEixEm(ptr noundef nonnull align 8 dereferenceable(24) %0, i64 noundef %1) #1 comdat align 2 {
  %3 = alloca ptr, align 8
  %4 = alloca i64, align 8
  store ptr %0, ptr %3, align 8
  store i64 %1, ptr %4, align 8
  %5 = load ptr, ptr %3, align 8
  %6 = getelementptr inbounds nuw %"struct.std::_Vector_base.40", ptr %5, i32 0, i32 0
  %7 = getelementptr inbounds nuw %"struct.std::_Vector_base<unsigned long, std::allocator<unsigned long>>::_Vector_impl_data", ptr %6, i32 0, i32 0
  %8 = load ptr, ptr %7, align 8
  %9 = load i64, ptr %4, align 8
  %10 = getelementptr inbounds i64, ptr %8, i64 %9
  ret ptr %10
}

; Function Attrs: mustprogress nounwind uwtable
define linkonce_odr hidden noundef i32 @_ZNK4llvm15InstrProfRecord18getCountPseudoKindEv(ptr noundef nonnull align 8 dereferenceable(56) %0) #1 comdat align 2 {
  %2 = alloca i32, align 4
  %3 = alloca ptr, align 8
  %4 = alloca i64, align 8
  store ptr %0, ptr %3, align 8
  %5 = load ptr, ptr %3, align 8
  %6 = getelementptr inbounds nuw %"struct.llvm::InstrProfRecord", ptr %5, i32 0, i32 0
  %7 = call noundef nonnull align 8 dereferenceable(8) ptr @_ZNKSt6vectorImSaImEEixEm(ptr noundef nonnull align 8 dereferenceable(24) %6, i64 noundef 0) #2
  %8 = load i64, ptr %7, align 8
  store i64 %8, ptr %4, align 8
  %9 = load i64, ptr %4, align 8
  %10 = icmp eq i64 %9, -1
  br i1 %10, label %11, label %12

11:                                               ; preds = %1
  store i32 1, ptr %2, align 4
  br label %17

12:                                               ; preds = %1
  %13 = load i64, ptr %4, align 8
  %14 = icmp eq i64 %13, -2
  br i1 %14, label %15, label %16

15:                                               ; preds = %12
  store i32 2, ptr %2, align 4
  br label %17

16:                                               ; preds = %12
  store i32 0, ptr %2, align 4
  br label %17

17:                                               ; preds = %16, %15, %11
  %18 = load i32, ptr %2, align 4
  ret i32 %18
}

; Function Attrs: mustprogress nounwind uwtable
define dso_local void @_ZN4llvm23InstrProfSummaryBuilder9addRecordERKNS_15InstrProfRecordE(ptr noundef nonnull align 8 dereferenceable(136) %0, ptr noundef nonnull align 8 dereferenceable(56) %1) #1 align 2 {
  %3 = alloca ptr, align 8
  %4 = alloca ptr, align 8
  %5 = alloca i64, align 8
  %6 = alloca i64, align 8
  store ptr %0, ptr %3, align 8
  store ptr %1, ptr %4, align 8
  %7 = load ptr, ptr %3, align 8
  %8 = load ptr, ptr %4, align 8
  %9 = call noundef i32 @_ZNK4llvm15InstrProfRecord18getCountPseudoKindEv(ptr noundef nonnull align 8 dereferenceable(56) %8)
  %10 = icmp ne i32 %9, 0
  br i1 %10, label %11, label %12

11:                                               ; preds = %2
  br label %33

12:                                               ; preds = %2
  %13 = load ptr, ptr %4, align 8
  %14 = getelementptr inbounds nuw %"struct.llvm::InstrProfRecord", ptr %13, i32 0, i32 0
  %15 = call noundef nonnull align 8 dereferenceable(8) ptr @_ZNKSt6vectorImSaImEEixEm(ptr noundef nonnull align 8 dereferenceable(24) %14, i64 noundef 0) #2
  %16 = load i64, ptr %15, align 8
  call void @_ZN4llvm23InstrProfSummaryBuilder13addEntryCountEm(ptr noundef nonnull align 8 dereferenceable(136) %7, i64 noundef %16)
  store i64 1, ptr %5, align 8
  %17 = load ptr, ptr %4, align 8
  %18 = getelementptr inbounds nuw %"struct.llvm::InstrProfRecord", ptr %17, i32 0, i32 0
  %19 = call noundef i64 @_ZNKSt6vectorImSaImEE4sizeEv(ptr noundef nonnull align 8 dereferenceable(24) %18) #2
  store i64 %19, ptr %6, align 8
  br label %20

20:                                               ; preds = %30, %12
  %21 = load i64, ptr %5, align 8
  %22 = load i64, ptr %6, align 8
  %23 = icmp ult i64 %21, %22
  br i1 %23, label %24, label %33

24:                                               ; preds = %20
  %25 = load ptr, ptr %4, align 8
  %26 = getelementptr inbounds nuw %"struct.llvm::InstrProfRecord", ptr %25, i32 0, i32 0
  %27 = load i64, ptr %5, align 8
  %28 = call noundef nonnull align 8 dereferenceable(8) ptr @_ZNKSt6vectorImSaImEEixEm(ptr noundef nonnull align 8 dereferenceable(24) %26, i64 noundef %27) #2
  %29 = load i64, ptr %28, align 8
  call void @_ZN4llvm23InstrProfSummaryBuilder16addInternalCountEm(ptr noundef nonnull align 8 dereferenceable(136) %7, i64 noundef %29)
  br label %30

30:                                               ; preds = %24
  %31 = load i64, ptr %5, align 8
  %32 = add i64 %31, 1
  store i64 %32, ptr %5, align 8
  br label %20, !llvm.loop !4

33:                                               ; preds = %20, %11
  ret void
}