; Function Attrs: mustprogress nounwind uwtable
define dso_local void @_ZN4llvm23InstrProfSummaryBuilder9addRecordERKNS_15InstrProfRecordE(ptr noundef nonnull align 8 dereferenceable(136) %0, ptr nocapture noundef nonnull readonly align 8 dereferenceable(56) %1) local_unnamed_addr #0 align 2 {
  %3 = alloca i64, align 8
  %4 = alloca i64, align 8
  %5 = load ptr, ptr %1, align 8
  %6 = load i64, ptr %5, align 8
  %.not = icmp ult i64 %6, -2
  br i1 %.not, label %7, label %.loopexit

7:                                                ; preds = %2
  %8 = getelementptr inbounds nuw i8, ptr %0, i64 124
  %9 = load i32, ptr %8, align 4
  %10 = add i32 %9, 1
  store i32 %10, ptr %8, align 4
  call void @llvm.lifetime.start.p0(i64 8, ptr nonnull %4)
  store i64 %6, ptr %4, align 8
  %11 = getelementptr inbounds nuw i8, ptr %0, i64 96
  %12 = load i64, ptr %11, align 8
  %13 = add i64 %12, %6
  store i64 %13, ptr %11, align 8
  %14 = getelementptr inbounds nuw i8, ptr %0, i64 104
  %15 = load i64, ptr %14, align 8
  %16 = icmp ugt i64 %6, %15
  br i1 %16, label %17, label %_ZN4llvm21ProfileSummaryBuilder8addCountEm.exit.i

17:                                               ; preds = %7
  store i64 %6, ptr %14, align 8
  br label %_ZN4llvm21ProfileSummaryBuilder8addCountEm.exit.i

_ZN4llvm21ProfileSummaryBuilder8addCountEm.exit.i: ; preds = %17, %7
  %18 = getelementptr inbounds nuw i8, ptr %0, i64 120
  %19 = load i32, ptr %18, align 8
  %20 = add i32 %19, 1
  store i32 %20, ptr %18, align 8
  %21 = call noundef nonnull align 4 dereferenceable(4) ptr @_ZNSt3mapImjSt7greaterImESaISt4pairIKmjEEEixERS3_(ptr noundef nonnull align 8 dereferenceable(48) %0, ptr noundef nonnull align 8 dereferenceable(8) %4)
  %22 = load i32, ptr %21, align 4
  %23 = add i32 %22, 1
  store i32 %23, ptr %21, align 4
  call void @llvm.lifetime.end.p0(i64 8, ptr nonnull %4)
  %24 = getelementptr inbounds nuw i8, ptr %0, i64 112
  %25 = load i64, ptr %24, align 8
  %26 = icmp ugt i64 %6, %25
  br i1 %26, label %27, label %_ZN4llvm23InstrProfSummaryBuilder13addEntryCountEm.exit

27:                                               ; preds = %_ZN4llvm21ProfileSummaryBuilder8addCountEm.exit.i
  store i64 %6, ptr %24, align 8
  br label %_ZN4llvm23InstrProfSummaryBuilder13addEntryCountEm.exit

_ZN4llvm23InstrProfSummaryBuilder13addEntryCountEm.exit: ; preds = %_ZN4llvm21ProfileSummaryBuilder8addCountEm.exit.i, %27
  %28 = getelementptr inbounds nuw i8, ptr %1, i64 8
  %29 = load ptr, ptr %28, align 8
  %30 = load ptr, ptr %1, align 8
  %31 = ptrtoint ptr %29 to i64
  %32 = ptrtoint ptr %30 to i64
  %33 = sub i64 %31, %32
  %34 = ashr exact i64 %33, 3
  %35 = icmp ugt i64 %34, 1
  br i1 %35, label %.lr.ph, label %.loopexit

.lr.ph:                                           ; preds = %_ZN4llvm23InstrProfSummaryBuilder13addEntryCountEm.exit
  %36 = getelementptr inbounds nuw i8, ptr %0, i64 128
  br label %37

37:                                               ; preds = %.lr.ph, %_ZN4llvm23InstrProfSummaryBuilder16addInternalCountEm.exit
  %.010 = phi i64 [ 1, %.lr.ph ], [ %54, %_ZN4llvm23InstrProfSummaryBuilder16addInternalCountEm.exit ]
  %38 = load ptr, ptr %1, align 8
  %39 = getelementptr inbounds i64, ptr %38, i64 %.010
  %40 = load i64, ptr %39, align 8
  call void @llvm.lifetime.start.p0(i64 8, ptr nonnull %3)
  store i64 %40, ptr %3, align 8
  %41 = load i64, ptr %11, align 8
  %42 = add i64 %41, %40
  store i64 %42, ptr %11, align 8
  %43 = load i64, ptr %14, align 8
  %44 = icmp ugt i64 %40, %43
  br i1 %44, label %45, label %_ZN4llvm21ProfileSummaryBuilder8addCountEm.exit.i8

45:                                               ; preds = %37
  store i64 %40, ptr %14, align 8
  br label %_ZN4llvm21ProfileSummaryBuilder8addCountEm.exit.i8

_ZN4llvm21ProfileSummaryBuilder8addCountEm.exit.i8: ; preds = %45, %37
  %46 = load i32, ptr %18, align 8
  %47 = add i32 %46, 1
  store i32 %47, ptr %18, align 8
  %48 = call noundef nonnull align 4 dereferenceable(4) ptr @_ZNSt3mapImjSt7greaterImESaISt4pairIKmjEEEixERS3_(ptr noundef nonnull align 8 dereferenceable(48) %0, ptr noundef nonnull align 8 dereferenceable(8) %3)
  %49 = load i32, ptr %48, align 4
  %50 = add i32 %49, 1
  store i32 %50, ptr %48, align 4
  call void @llvm.lifetime.end.p0(i64 8, ptr nonnull %3)
  %51 = load i64, ptr %36, align 8
  %52 = icmp ugt i64 %40, %51
  br i1 %52, label %53, label %_ZN4llvm23InstrProfSummaryBuilder16addInternalCountEm.exit

53:                                               ; preds = %_ZN4llvm21ProfileSummaryBuilder8addCountEm.exit.i8
  store i64 %40, ptr %36, align 8
  br label %_ZN4llvm23InstrProfSummaryBuilder16addInternalCountEm.exit

_ZN4llvm23InstrProfSummaryBuilder16addInternalCountEm.exit: ; preds = %_ZN4llvm21ProfileSummaryBuilder8addCountEm.exit.i8, %53
  %54 = add nuw i64 %.010, 1
  %exitcond.not = icmp eq i64 %54, %34
  br i1 %exitcond.not, label %.loopexit, label %37, !llvm.loop !6

.loopexit:                                        ; preds = %_ZN4llvm23InstrProfSummaryBuilder16addInternalCountEm.exit, %_ZN4llvm23InstrProfSummaryBuilder13addEntryCountEm.exit, %2
  ret void
}